; Function Attrs: mustprogress nounwind uwtable
define dso_local void @_ZN4llvm7remarks14RemarkStreamer9setFilterENS_9StringRefE(ptr dead_on_unwind noalias writable sret(%"class.llvm::Error") align 8 %0, ptr noundef nonnull align 8 dereferenceable(72) %1, ptr %2, i64 %3) local_unnamed_addr #0 align 2 {
  %5 = alloca %"class.llvm::Regex", align 8
  %6 = alloca %"class.llvm::Regex", align 8
  %7 = alloca %"class.std::__cxx11::basic_string", align 8
  call void @_ZN4llvm5RegexC1ENS_9StringRefENS0_10RegexFlagsE(ptr noundef nonnull align 8 dereferenceable(12) %6, ptr %2, i64 %3, i32 noundef 0) #14
  call void @_ZNSt7__cxx1112basic_stringIcSt11char_traitsIcESaIcEEC1Ev(ptr noundef nonnull align 8 dereferenceable(32) %7) #14
  %8 = call noundef zeroext i1 @_ZNK4llvm5Regex7isValidERNSt7__cxx1112basic_stringIcSt11char_traitsIcESaIcEEE(ptr noundef nonnull align 8 dereferenceable(12) %6, ptr noundef nonnull align 8 dereferenceable(32) %7) #14
  br i1 %8, label %12, label %9

9:                                                ; preds = %4
  %10 = tail call noundef nonnull align 8 dereferenceable(8) ptr @_ZNSt3_V216generic_categoryEv() #15
  %11 = call noundef ptr @_ZNSt7__cxx1112basic_stringIcSt11char_traitsIcESaIcEE4dataEv(ptr noundef nonnull align 8 dereferenceable(32) %7) #14
  call void @_ZN4llvm17createStringErrorESt10error_codePKc(ptr dead_on_unwind writable sret(%"class.llvm::Error") align 8 %0, i32 22, ptr nonnull %10, ptr noundef %11)
  br label %24

12:                                               ; preds = %4
  call void @llvm.lifetime.start.p0(i64 16, ptr nonnull %5)
  %13 = getelementptr inbounds nuw i8, ptr %1, i64 16
  %14 = load i8, ptr %13, align 8
  %15 = trunc i8 %14 to i1
  br i1 %15, label %16, label %23

16:                                               ; preds = %12
  call void @_ZN4llvm5RegexC1EOS0_(ptr noundef nonnull align 8 dereferenceable(12) %5, ptr noundef nonnull align 8 dereferenceable(12) %6) #14
  %17 = load ptr, ptr %1, align 8
  %18 = load ptr, ptr %5, align 8
  store ptr %18, ptr %1, align 8
  store ptr %17, ptr %5, align 8
  %19 = getelementptr inbounds nuw i8, ptr %1, i64 8
  %20 = getelementptr inbounds nuw i8, ptr %5, i64 8
  %21 = load i32, ptr %19, align 8
  %22 = load i32, ptr %20, align 8
  store i32 %22, ptr %19, align 8
  store i32 %21, ptr %20, align 8
  call void @_ZN4llvm5RegexD1Ev(ptr noundef nonnull align 8 dereferenceable(12) %5) #14
  br label %_ZN4llvm12ErrorSuccessD2Ev.exit

23:                                               ; preds = %12
  call void @_ZN4llvm5RegexC1EOS0_(ptr noundef nonnull align 8 dereferenceable(12) %1, ptr noundef nonnull align 8 dereferenceable(12) %6) #14
  store i8 1, ptr %13, align 8
  br label %_ZN4llvm12ErrorSuccessD2Ev.exit

_ZN4llvm12ErrorSuccessD2Ev.exit:                  ; preds = %23, %16
  call void @llvm.lifetime.end.p0(i64 16, ptr nonnull %5)
  store ptr null, ptr %0, align 8
  br label %24

24:                                               ; preds = %_ZN4llvm12ErrorSuccessD2Ev.exit, %9
  call void @_ZNSt7__cxx1112basic_stringIcSt11char_traitsIcESaIcEED1Ev(ptr noundef nonnull align 8 dereferenceable(32) %7) #14
  call void @_ZN4llvm5RegexD1Ev(ptr noundef nonnull align 8 dereferenceable(12) %6) #14
  ret void
}